; Function Attrs: nounwind uwtable
define internal i32 @dh_pkey_public_check(ptr noundef readonly captures(none) %0) #0 {
  %2 = getelementptr inbounds nuw i8, ptr %0, i64 32
  %3 = load ptr, ptr %2, align 8, !tbaa !42
  %4 = getelementptr inbounds nuw i8, ptr %3, i64 112
  %5 = load ptr, ptr %4, align 8, !tbaa !23
  %6 = icmp eq ptr %5, null
  br i1 %6, label %7, label %8

7:                                                ; preds = %1
  tail call void @ERR_new() #5
  tail call void @ERR_set_debug(ptr noundef nonnull @.str.11, i32 noundef 433, ptr noundef nonnull @__func__.dh_pkey_public_check) #5
  tail call void (i32, i32, ptr, ...) @ERR_set_error(i32 noundef 5, i32 noundef 125, ptr noundef null) #5
  br label %10

8:                                                ; preds = %1
  %9 = tail call i32 @DH_check_pub_key_ex(ptr noundef nonnull %3, ptr noundef nonnull %5) #5
  br label %10

10:                                               ; preds = %8, %7
  %.0 = phi i32 [ 0, %7 ], [ %9, %8 ]
  ret i32 %.0
}